(lp0
(dp1
S'elements'
p2
(lp3
(dp4
S'p2'
p5
(I20
I0
I0
tp6
sS'p1'
p7
(I0
I0
I0
tp8
sS'type'
p9
S'l'
p10
sS'pNr'
p11
I1
sa(dp12
g5
(I20
I-15
I0
tp13
sg7
(I20
I0
I0
tp14
sg9
g10
sg11
I2
sa(dp15
g5
(I35
I-15
I0
tp16
sg7
(I20
I-15
I0
tp17
sg9
g10
sg11
I3
sa(dp18
g5
(I35
I0
I0
tp19
sg7
(I35
I-15
I0
tp20
sg9
g10
sg11
I4
sa(dp21
g5
(I50
I0
I0
tp22
sg7
(I35
I0
I0
tp23
sg9
g10
sg11
I5
sa(dp24
g5
(I0
I50
I0
tp25
sg7
(I50
I0
I0
tp26
sg9
g10
sg11
I6
sa(dp27
g5
(I-50
I30
I0
tp28
sS'rad'
p29
I40
sg7
(I0
I50
I0
tp30
sg11
I7
sg9
S'a'
p31
sS'dir'
p32
S'cc'
p33
sa(dp34
g5
(I0
I0
I0
tp35
sg7
(I-50
I30
I0
tp36
sg9
g10
sg11
I8
sasS'name'
p37
S'pups'
p38
sa(dp39
g2
(lp40
(dp41
g5
(F20.0
F5.0
F0.0
tp42
sg7
(F1.3849198247421677
F5.0
F0.0
tp43
sg9
g10
sg11
I1
sa(dp44
g5
(F25.0
F0.0
F0.0
tp45
sg29
F5.0
sg7
g42
sg11
I2
sg9
g31
sg32
S'cw'
p46
sa(dp47
g5
(F25.0
F-10.0
F0.0
tp48
sg7
g45
sg9
g10
sg11
I3
sa(dp49
g5
(F30.0
F-10.0
F0.0
tp50
sg7
g48
sg9
g10
sg11
I4
sa(dp51
g5
(F30.0
F0.0
F0.0
tp52
sg7
g50
sg9
g10
sg11
I5
sa(dp53
g5
(F35.0
F5.0
F0.0
tp54
sg29
F5.0
sg7
g52
sg11
I6
sg9
g31
sg32
g46
sa(dp55
g5
(F37.928932188134524
F5.0
F0.0
tp56
sg7
g54
sg9
g10
sg11
I7
sa(dp57
g5
(F-2.7412811108191235
F45.670213298953648
F0.0
tp58
sg7
g56
sg9
g10
sg11
I8
sa(dp59
g5
(F-43.248375874710817
F31.779977419671791
F0.0
tp60
sg29
F35.0
sg7
g58
sg11
I9
sg9
g31
sg32
g33
sa(dp61
g5
g43
sg7
g60
sg9
g10
sg11
I10
sasg37
S'LeftContour1'
p62
sa(dp63
g2
(lp64
(dp65
g5
(F20.0
F10.0
F0.0
tp66
sg7
(F-1.1875589523954651
F0.71253537143727996
F0.0
tp67
sg9
g10
sg11
I1
sa(dp68
g5
(F27.5
F6.6143782776614763
F0.0
tp69
sg29
F10.0
sg7
g66
sg11
I2
sg9
g31
sg32
g46
sa(dp70
g5
(F28.370885916114034
F7.4869784601550142
F0.0
tp71
sg29
F10.0
sg7
g69
sg11
I3
sg9
g31
sg32
g46
sa(dp72
g5
(F-5.4201375492250676
F41.278001925494117
F0.0
tp73
sg7
g71
sg9
g10
sg11
I4
sa(dp74
g5
(F-35.810871392879825
F33.148426625418494
F0.0
tp75
sg29
F30.0
sg7
g73
sg11
I5
sg9
g31
sg32
g33
sa(dp76
g5
(F3.9573985115282397
F9.2874646827736598
F0.0
tp77
sg7
g75
sg9
g10
sg11
I6
sa(dp78
g5
g67
sg29
F5.0
sg7
g77
sg11
I7
sg9
g31
sg32
g46
sasg37
S'LeftContour2'
p79
sa.